target datalayout = "e-m:e-p270:32:32-p271:32:32-p272:64:64-i64:64-i128:128-f80:128-n8:16:32:64-S128"
target triple = "x86_64-pc-linux-gnu"

; Function Attrs: nounwind uwtable
define internal void @put_vp8_pixels8_c(ptr noundef %0, i64 noundef %1, ptr noundef %2, i64 noundef %3, i32 noundef %4, i32 noundef %5, i32 noundef %6) #1 {
  %8 = alloca ptr, align 8
  %9 = alloca i64, align 8
  %10 = alloca ptr, align 8
  %11 = alloca i64, align 8
  %12 = alloca i32, align 4
  %13 = alloca i32, align 4
  %14 = alloca i32, align 4
  %15 = alloca i32, align 4
  store ptr %0, ptr %8, align 8, !tbaa !10
  store i64 %1, ptr %9, align 8, !tbaa !12
  store ptr %2, ptr %10, align 8, !tbaa !10
  store i64 %3, ptr %11, align 8, !tbaa !12
  store i32 %4, ptr %12, align 4, !tbaa !14
  store i32 %5, ptr %13, align 4, !tbaa !14
  store i32 %6, ptr %14, align 4, !tbaa !14
  call void @llvm.lifetime.start.p0(i64 4, ptr %15) #6
  store i32 0, ptr %15, align 4, !tbaa !14
  br label %16

16:                                               ; preds = %23, %7
  %17 = load i32, ptr %15, align 4, !tbaa !14
  %18 = load i32, ptr %12, align 4, !tbaa !14
  %19 = icmp slt i32 %17, %18
  br i1 %19, label %20, label %32

20:                                               ; preds = %16
  %21 = load ptr, ptr %8, align 8, !tbaa !10
  %22 = load ptr, ptr %10, align 8, !tbaa !10
  call void @llvm.memcpy.p0.p0.i64(ptr align 1 %21, ptr align 1 %22, i64 8, i1 false)
  br label %23

23:                                               ; preds = %20
  %24 = load i32, ptr %15, align 4, !tbaa !14
  %25 = add nsw i32 %24, 1
  store i32 %25, ptr %15, align 4, !tbaa !14
  %26 = load i64, ptr %9, align 8, !tbaa !12
  %27 = load ptr, ptr %8, align 8, !tbaa !10
  %28 = getelementptr inbounds i8, ptr %27, i64 %26
  store ptr %28, ptr %8, align 8, !tbaa !10
  %29 = load i64, ptr %11, align 8, !tbaa !12
  %30 = load ptr, ptr %10, align 8, !tbaa !10
  %31 = getelementptr inbounds i8, ptr %30, i64 %29
  store ptr %31, ptr %10, align 8, !tbaa !10
  br label %16, !llvm.loop !43

32:                                               ; preds = %16
  call void @llvm.lifetime.end.p0(i64 4, ptr %15) #6
  ret void
}